target datalayout = "e-m:e-p270:32:32-p271:32:32-p272:64:64-i64:64-i128:128-f80:128-n8:16:32:64-S128"
target triple = "x86_64-pc-linux-gnu"

%struct.qlog_st = type { %struct.qlog_trace_info_st, ptr, [1 x i64], i32, ptr, ptr, ptr, %struct.OSSL_TIME, %struct.OSSL_TIME, %struct.ossl_json_enc_st, i32, i32 }
%struct.qlog_trace_info_st = type { %struct.quic_conn_id_st, ptr, ptr, ptr, i32, ptr, ptr, i64, ptr }
%struct.quic_conn_id_st = type { i8, [20 x i8] }
%struct.OSSL_TIME = type { i64 }
%struct.ossl_json_enc_st = type { i32, i8, i8, i8, ptr, i8, [16 x i8], %struct.json_write_buf, i64, i64 }
%struct.json_write_buf = type { ptr, ptr, i64, i64 }

@.str = private unnamed_addr constant [27 x i8] c"../openssl/ssl/quic/qlog.c\00", align 1

; Function Attrs: nounwind uwtable
define ptr @ossl_qlog_new(ptr noundef %0) #0 {
  %2 = alloca ptr, align 8
  %3 = alloca ptr, align 8
  %4 = alloca ptr, align 8
  %5 = alloca i32, align 4
  store ptr %0, ptr %3, align 8, !tbaa !3
  call void @llvm.lifetime.start.p0(i64 8, ptr %4) #9
  %6 = call noalias ptr @CRYPTO_zalloc(i64 noundef 248, ptr noundef @.str, i32 noundef 57)
  store ptr %6, ptr %4, align 8, !tbaa !8
  %7 = load ptr, ptr %4, align 8, !tbaa !8
  %8 = icmp eq ptr %7, null
  br i1 %8, label %9, label %10

9:                                                ; preds = %1
  store ptr null, ptr %2, align 8
  store i32 1, ptr %5, align 4
  br label %139

10:                                               ; preds = %1
  %11 = load ptr, ptr %4, align 8, !tbaa !8
  %12 = getelementptr inbounds nuw %struct.qlog_st, ptr %11, i32 0, i32 0
  %13 = getelementptr inbounds nuw %struct.qlog_trace_info_st, ptr %12, i32 0, i32 0
  %14 = load ptr, ptr %3, align 8, !tbaa !3
  %15 = getelementptr inbounds nuw %struct.qlog_trace_info_st, ptr %14, i32 0, i32 0
  call void @llvm.memcpy.p0.p0.i64(ptr align 8 %13, ptr align 8 %15, i64 21, i1 false), !tbaa.struct !10
  %16 = load ptr, ptr %3, align 8, !tbaa !3
  %17 = getelementptr inbounds nuw %struct.qlog_trace_info_st, ptr %16, i32 0, i32 4
  %18 = load i32, ptr %17, align 8, !tbaa !12
  %19 = load ptr, ptr %4, align 8, !tbaa !8
  %20 = getelementptr inbounds nuw %struct.qlog_st, ptr %19, i32 0, i32 0
  %21 = getelementptr inbounds nuw %struct.qlog_trace_info_st, ptr %20, i32 0, i32 4
  store i32 %18, ptr %21, align 8, !tbaa !18
  %22 = load ptr, ptr %3, align 8, !tbaa !3
  %23 = getelementptr inbounds nuw %struct.qlog_trace_info_st, ptr %22, i32 0, i32 5
  %24 = load ptr, ptr %23, align 8, !tbaa !24
  %25 = load ptr, ptr %4, align 8, !tbaa !8
  %26 = getelementptr inbounds nuw %struct.qlog_st, ptr %25, i32 0, i32 0
  %27 = getelementptr inbounds nuw %struct.qlog_trace_info_st, ptr %26, i32 0, i32 5
  store ptr %24, ptr %27, align 8, !tbaa !25
  %28 = load ptr, ptr %3, align 8, !tbaa !3
  %29 = getelementptr inbounds nuw %struct.qlog_trace_info_st, ptr %28, i32 0, i32 6
  %30 = load ptr, ptr %29, align 8, !tbaa !26
  %31 = load ptr, ptr %4, align 8, !tbaa !8
  %32 = getelementptr inbounds nuw %struct.qlog_st, ptr %31, i32 0, i32 0
  %33 = getelementptr inbounds nuw %struct.qlog_trace_info_st, ptr %32, i32 0, i32 6
  store ptr %30, ptr %33, align 8, !tbaa !27
  %34 = load ptr, ptr %3, align 8, !tbaa !3
  %35 = getelementptr inbounds nuw %struct.qlog_trace_info_st, ptr %34, i32 0, i32 7
  %36 = load i64, ptr %35, align 8, !tbaa !28
  %37 = load ptr, ptr %4, align 8, !tbaa !8
  %38 = getelementptr inbounds nuw %struct.qlog_st, ptr %37, i32 0, i32 0
  %39 = getelementptr inbounds nuw %struct.qlog_trace_info_st, ptr %38, i32 0, i32 7
  store i64 %36, ptr %39, align 8, !tbaa !29
  %40 = load ptr, ptr %3, align 8, !tbaa !3
  %41 = getelementptr inbounds nuw %struct.qlog_trace_info_st, ptr %40, i32 0, i32 1
  %42 = load ptr, ptr %41, align 8, !tbaa !30
  %43 = icmp ne ptr %42, null
  br i1 %43, label %44, label %54

44:                                               ; preds = %10
  %45 = load ptr, ptr %3, align 8, !tbaa !3
  %46 = getelementptr inbounds nuw %struct.qlog_trace_info_st, ptr %45, i32 0, i32 1
  %47 = load ptr, ptr %46, align 8, !tbaa !30
  %48 = call noalias ptr @CRYPTO_strdup(ptr noundef %47, ptr noundef @.str, i32 noundef 69)
  %49 = load ptr, ptr %4, align 8, !tbaa !8
  %50 = getelementptr inbounds nuw %struct.qlog_st, ptr %49, i32 0, i32 0
  %51 = getelementptr inbounds nuw %struct.qlog_trace_info_st, ptr %50, i32 0, i32 1
  store ptr %48, ptr %51, align 8, !tbaa !31
  %52 = icmp eq ptr %48, null
  br i1 %52, label %53, label %54

53:                                               ; preds = %44
  br label %117

54:                                               ; preds = %44, %10
  %55 = load ptr, ptr %3, align 8, !tbaa !3
  %56 = getelementptr inbounds nuw %struct.qlog_trace_info_st, ptr %55, i32 0, i32 2
  %57 = load ptr, ptr %56, align 8, !tbaa !32
  %58 = icmp ne ptr %57, null
  br i1 %58, label %59, label %69

59:                                               ; preds = %54
  %60 = load ptr, ptr %3, align 8, !tbaa !3
  %61 = getelementptr inbounds nuw %struct.qlog_trace_info_st, ptr %60, i32 0, i32 2
  %62 = load ptr, ptr %61, align 8, !tbaa !32
  %63 = call noalias ptr @CRYPTO_strdup(ptr noundef %62, ptr noundef @.str, i32 noundef 73)
  %64 = load ptr, ptr %4, align 8, !tbaa !8
  %65 = getelementptr inbounds nuw %struct.qlog_st, ptr %64, i32 0, i32 0
  %66 = getelementptr inbounds nuw %struct.qlog_trace_info_st, ptr %65, i32 0, i32 2
  store ptr %63, ptr %66, align 8, !tbaa !33
  %67 = icmp eq ptr %63, null
  br i1 %67, label %68, label %69

68:                                               ; preds = %59
  br label %117

69:                                               ; preds = %59, %54
  %70 = load ptr, ptr %3, align 8, !tbaa !3
  %71 = getelementptr inbounds nuw %struct.qlog_trace_info_st, ptr %70, i32 0, i32 3
  %72 = load ptr, ptr %71, align 8, !tbaa !34
  %73 = icmp ne ptr %72, null
  br i1 %73, label %74, label %84

74:                                               ; preds = %69
  %75 = load ptr, ptr %3, align 8, !tbaa !3
  %76 = getelementptr inbounds nuw %struct.qlog_trace_info_st, ptr %75, i32 0, i32 3
  %77 = load ptr, ptr %76, align 8, !tbaa !34
  %78 = call noalias ptr @CRYPTO_strdup(ptr noundef %77, ptr noundef @.str, i32 noundef 77)
  %79 = load ptr, ptr %4, align 8, !tbaa !8
  %80 = getelementptr inbounds nuw %struct.qlog_st, ptr %79, i32 0, i32 0
  %81 = getelementptr inbounds nuw %struct.qlog_trace_info_st, ptr %80, i32 0, i32 3
  store ptr %78, ptr %81, align 8, !tbaa !35
  %82 = icmp eq ptr %78, null
  br i1 %82, label %83, label %84

83:                                               ; preds = %74
  br label %117

84:                                               ; preds = %74, %69
  %85 = load ptr, ptr %3, align 8, !tbaa !3
  %86 = getelementptr inbounds nuw %struct.qlog_trace_info_st, ptr %85, i32 0, i32 8
  %87 = load ptr, ptr %86, align 8, !tbaa !36
  %88 = icmp ne ptr %87, null
  br i1 %88, label %89, label %99

89:                                               ; preds = %84
  %90 = load ptr, ptr %3, align 8, !tbaa !3
  %91 = getelementptr inbounds nuw %struct.qlog_trace_info_st, ptr %90, i32 0, i32 8
  %92 = load ptr, ptr %91, align 8, !tbaa !36
  %93 = call noalias ptr @CRYPTO_strdup(ptr noundef %92, ptr noundef @.str, i32 noundef 82)
  %94 = load ptr, ptr %4, align 8, !tbaa !8
  %95 = getelementptr inbounds nuw %struct.qlog_st, ptr %94, i32 0, i32 0
  %96 = getelementptr inbounds nuw %struct.qlog_trace_info_st, ptr %95, i32 0, i32 8
  store ptr %93, ptr %96, align 8, !tbaa !37
  %97 = icmp eq ptr %93, null
  br i1 %97, label %98, label %99

98:                                               ; preds = %89
  br label %117

99:                                               ; preds = %89, %84
  %100 = load ptr, ptr %4, align 8, !tbaa !8
  %101 = getelementptr inbounds nuw %struct.qlog_st, ptr %100, i32 0, i32 9
  %102 = call i32 @ossl_json_init(ptr noundef %101, ptr noundef null, i32 noundef 5)
  %103 = icmp ne i32 %102, 0
  br i1 %103, label %105, label %104

104:                                              ; preds = %99
  br label %117

105:                                              ; preds = %99
  %106 = load ptr, ptr %4, align 8, !tbaa !8
  %107 = getelementptr inbounds nuw %struct.qlog_st, ptr %106, i32 0, i32 0
  %108 = getelementptr inbounds nuw %struct.qlog_trace_info_st, ptr %107, i32 0, i32 5
  %109 = load ptr, ptr %108, align 8, !tbaa !25
  %110 = icmp eq ptr %109, null
  br i1 %110, label %111, label %115

111:                                              ; preds = %105
  %112 = load ptr, ptr %4, align 8, !tbaa !8
  %113 = getelementptr inbounds nuw %struct.qlog_st, ptr %112, i32 0, i32 0
  %114 = getelementptr inbounds nuw %struct.qlog_trace_info_st, ptr %113, i32 0, i32 5
  store ptr @default_now, ptr %114, align 8, !tbaa !25
  br label %115

115:                                              ; preds = %111, %105
  %116 = load ptr, ptr %4, align 8, !tbaa !8
  store ptr %116, ptr %2, align 8
  store i32 1, ptr %5, align 4
  br label %139

117:                                              ; preds = %104, %98, %83, %68, %53
  %118 = load ptr, ptr %4, align 8, !tbaa !8
  %119 = icmp ne ptr %118, null
  br i1 %119, label %120, label %138

120:                                              ; preds = %117
  %121 = load ptr, ptr %4, align 8, !tbaa !8
  %122 = getelementptr inbounds nuw %struct.qlog_st, ptr %121, i32 0, i32 0
  %123 = getelementptr inbounds nuw %struct.qlog_trace_info_st, ptr %122, i32 0, i32 1
  %124 = load ptr, ptr %123, align 8, !tbaa !31
  call void @CRYPTO_free(ptr noundef %124, ptr noundef @.str, i32 noundef 96)
  %125 = load ptr, ptr %4, align 8, !tbaa !8
  %126 = getelementptr inbounds nuw %struct.qlog_st, ptr %125, i32 0, i32 0
  %127 = getelementptr inbounds nuw %struct.qlog_trace_info_st, ptr %126, i32 0, i32 2
  %128 = load ptr, ptr %127, align 8, !tbaa !33
  call void @CRYPTO_free(ptr noundef %128, ptr noundef @.str, i32 noundef 97)
  %129 = load ptr, ptr %4, align 8, !tbaa !8
  %130 = getelementptr inbounds nuw %struct.qlog_st, ptr %129, i32 0, i32 0
  %131 = getelementptr inbounds nuw %struct.qlog_trace_info_st, ptr %130, i32 0, i32 3
  %132 = load ptr, ptr %131, align 8, !tbaa !35
  call void @CRYPTO_free(ptr noundef %132, ptr noundef @.str, i32 noundef 98)
  %133 = load ptr, ptr %4, align 8, !tbaa !8
  %134 = getelementptr inbounds nuw %struct.qlog_st, ptr %133, i32 0, i32 0
  %135 = getelementptr inbounds nuw %struct.qlog_trace_info_st, ptr %134, i32 0, i32 8
  %136 = load ptr, ptr %135, align 8, !tbaa !37
  call void @CRYPTO_free(ptr noundef %136, ptr noundef @.str, i32 noundef 99)
  %137 = load ptr, ptr %4, align 8, !tbaa !8
  call void @CRYPTO_free(ptr noundef %137, ptr noundef @.str, i32 noundef 100)
  br label %138

138:                                              ; preds = %120, %117
  store ptr null, ptr %2, align 8
  store i32 1, ptr %5, align 4
  br label %139

139:                                              ; preds = %138, %115, %9
  call void @llvm.lifetime.end.p0(i64 8, ptr %4) #9
  %140 = load ptr, ptr %2, align 8
  ret ptr %140
}