; Function Attrs: nounwind uwtable
define ptr @ossl_qlog_new(ptr noundef readonly captures(none) %0) local_unnamed_addr #0 {
  %2 = tail call noalias ptr @CRYPTO_zalloc(i64 noundef 248, ptr noundef nonnull @.str, i32 noundef 57) #11
  %3 = icmp eq ptr %2, null
  br i1 %3, label %60, label %4

4:                                                ; preds = %1
  tail call void @llvm.memcpy.p0.p0.i64(ptr noundef nonnull align 8 dereferenceable(21) %2, ptr noundef nonnull align 8 dereferenceable(21) %0, i64 21, i1 false), !tbaa.struct !3
  %5 = getelementptr inbounds nuw i8, ptr %0, i64 48
  %6 = load i32, ptr %5, align 8, !tbaa !7
  %7 = getelementptr inbounds nuw i8, ptr %2, i64 48
  store i32 %6, ptr %7, align 8, !tbaa !14
  %8 = getelementptr inbounds nuw i8, ptr %0, i64 56
  %9 = load ptr, ptr %8, align 8, !tbaa !20
  %10 = getelementptr inbounds nuw i8, ptr %2, i64 56
  store ptr %9, ptr %10, align 8, !tbaa !21
  %11 = getelementptr inbounds nuw i8, ptr %0, i64 64
  %12 = load ptr, ptr %11, align 8, !tbaa !22
  %13 = getelementptr inbounds nuw i8, ptr %2, i64 64
  store ptr %12, ptr %13, align 8, !tbaa !23
  %14 = getelementptr inbounds nuw i8, ptr %0, i64 72
  %15 = load i64, ptr %14, align 8, !tbaa !24
  %16 = getelementptr inbounds nuw i8, ptr %2, i64 72
  store i64 %15, ptr %16, align 8, !tbaa !25
  %17 = getelementptr inbounds nuw i8, ptr %0, i64 24
  %18 = load ptr, ptr %17, align 8, !tbaa !26
  %.not = icmp eq ptr %18, null
  br i1 %.not, label %23, label %19

19:                                               ; preds = %4
  %20 = tail call noalias ptr @CRYPTO_strdup(ptr noundef nonnull %18, ptr noundef nonnull @.str, i32 noundef 69) #11
  %21 = getelementptr inbounds nuw i8, ptr %2, i64 24
  store ptr %20, ptr %21, align 8, !tbaa !27
  %22 = icmp eq ptr %20, null
  br i1 %22, label %51, label %23

23:                                               ; preds = %19, %4
  %24 = getelementptr inbounds nuw i8, ptr %0, i64 32
  %25 = load ptr, ptr %24, align 8, !tbaa !28
  %.not39 = icmp eq ptr %25, null
  br i1 %.not39, label %30, label %26

26:                                               ; preds = %23
  %27 = tail call noalias ptr @CRYPTO_strdup(ptr noundef nonnull %25, ptr noundef nonnull @.str, i32 noundef 73) #11
  %28 = getelementptr inbounds nuw i8, ptr %2, i64 32
  store ptr %27, ptr %28, align 8, !tbaa !29
  %29 = icmp eq ptr %27, null
  br i1 %29, label %51, label %30

30:                                               ; preds = %26, %23
  %31 = getelementptr inbounds nuw i8, ptr %0, i64 40
  %32 = load ptr, ptr %31, align 8, !tbaa !30
  %.not40 = icmp eq ptr %32, null
  br i1 %.not40, label %37, label %33

33:                                               ; preds = %30
  %34 = tail call noalias ptr @CRYPTO_strdup(ptr noundef nonnull %32, ptr noundef nonnull @.str, i32 noundef 77) #11
  %35 = getelementptr inbounds nuw i8, ptr %2, i64 40
  store ptr %34, ptr %35, align 8, !tbaa !31
  %36 = icmp eq ptr %34, null
  br i1 %36, label %51, label %37

37:                                               ; preds = %33, %30
  %38 = getelementptr inbounds nuw i8, ptr %0, i64 80
  %39 = load ptr, ptr %38, align 8, !tbaa !32
  %.not41 = icmp eq ptr %39, null
  br i1 %.not41, label %44, label %40

40:                                               ; preds = %37
  %41 = tail call noalias ptr @CRYPTO_strdup(ptr noundef nonnull %39, ptr noundef nonnull @.str, i32 noundef 82) #11
  %42 = getelementptr inbounds nuw i8, ptr %2, i64 80
  store ptr %41, ptr %42, align 8, !tbaa !33
  %43 = icmp eq ptr %41, null
  br i1 %43, label %51, label %44

44:                                               ; preds = %40, %37
  %45 = getelementptr inbounds nuw i8, ptr %2, i64 152
  %46 = tail call i32 @ossl_json_init(ptr noundef nonnull %45, ptr noundef null, i32 noundef 5) #11
  %.not42 = icmp eq i32 %46, 0
  br i1 %.not42, label %51, label %47

47:                                               ; preds = %44
  %48 = load ptr, ptr %10, align 8, !tbaa !21
  %49 = icmp eq ptr %48, null
  br i1 %49, label %50, label %60

50:                                               ; preds = %47
  store ptr @default_now, ptr %10, align 8, !tbaa !21
  br label %60

51:                                               ; preds = %19, %26, %33, %40, %44
  %52 = getelementptr inbounds nuw i8, ptr %2, i64 24
  %53 = load ptr, ptr %52, align 8, !tbaa !27
  tail call void @CRYPTO_free(ptr noundef %53, ptr noundef nonnull @.str, i32 noundef 96) #11
  %54 = getelementptr inbounds nuw i8, ptr %2, i64 32
  %55 = load ptr, ptr %54, align 8, !tbaa !29
  tail call void @CRYPTO_free(ptr noundef %55, ptr noundef nonnull @.str, i32 noundef 97) #11
  %56 = getelementptr inbounds nuw i8, ptr %2, i64 40
  %57 = load ptr, ptr %56, align 8, !tbaa !31
  tail call void @CRYPTO_free(ptr noundef %57, ptr noundef nonnull @.str, i32 noundef 98) #11
  %58 = getelementptr inbounds nuw i8, ptr %2, i64 80
  %59 = load ptr, ptr %58, align 8, !tbaa !33
  tail call void @CRYPTO_free(ptr noundef %59, ptr noundef nonnull @.str, i32 noundef 99) #11
  tail call void @CRYPTO_free(ptr noundef nonnull %2, ptr noundef nonnull @.str, i32 noundef 100) #11
  br label %60

60:                                               ; preds = %47, %50, %1, %51
  %.0 = phi ptr [ null, %51 ], [ null, %1 ], [ %2, %50 ], [ %2, %47 ]
  ret ptr %.0
}